	.file	"dgemm_nn.c"
	.text
.Ltext0:
	.file 0 "/home/akiel/Desktop/trunk/github/pub/openGPMP/modules/linalg" "dgemm_nn.c"
	.local	_A
	.comm	_A,1179648,16
	.local	_B
	.comm	_B,12582912,16
	.local	_C
	.comm	_C,128,16
	.type	pack_MRxk, @function
pack_MRxk:
.LFB4865:
	.file 1 "dgemm_nn.c"
	.loc 1 40 1
	.cfi_startproc
	pushq	%rbp
	.cfi_def_cfa_offset 16
	.cfi_offset 6, -16
	movq	%rsp, %rbp
	.cfi_def_cfa_register 6
	movl	%edi, -20(%rbp)
	movq	%rsi, -32(%rbp)
	movl	%edx, -24(%rbp)
	movl	%ecx, -36(%rbp)
	movq	%r8, -48(%rbp)
	.loc 1 43 11
	movl	$0, -8(%rbp)
	.loc 1 43 5
	jmp	.L2
.L5:
	.loc 1 44 15
	movl	$0, -4(%rbp)
	.loc 1 44 9
	jmp	.L3
.L4:
	.loc 1 45 28
	movl	-4(%rbp), %eax
	imull	-24(%rbp), %eax
	cltq
	.loc 1 45 26
	leaq	0(,%rax,8), %rdx
	movq	-32(%rbp), %rax
	addq	%rax, %rdx
	.loc 1 45 19
	movl	-4(%rbp), %eax
	cltq
	leaq	0(,%rax,8), %rcx
	movq	-48(%rbp), %rax
	addq	%rcx, %rax
	.loc 1 45 26
	movsd	(%rdx), %xmm0
	.loc 1 45 23
	movsd	%xmm0, (%rax)
	.loc 1 44 25 discriminator 3
	addl	$1, -4(%rbp)
.L3:
	.loc 1 44 20 discriminator 1
	cmpl	$3, -4(%rbp)
	jle	.L4
	.loc 1 47 16
	addq	$32, -48(%rbp)
	.loc 1 48 16
	movl	-36(%rbp), %eax
	cltq
	salq	$3, %rax
	addq	%rax, -32(%rbp)
	.loc 1 43 20 discriminator 2
	addl	$1, -8(%rbp)
.L2:
	.loc 1 43 16 discriminator 1
	movl	-8(%rbp), %eax
	cmpl	-20(%rbp), %eax
	jl	.L5
	.loc 1 50 1
	nop
	nop
	popq	%rbp
	.cfi_def_cfa 7, 8
	ret
	.cfi_endproc
.LFE4865:
	.size	pack_MRxk, .-pack_MRxk
	.type	pack_A, @function
pack_A:
.LFB4866:
	.loc 1 58 1
	.cfi_startproc
	pushq	%rbp
	.cfi_def_cfa_offset 16
	.cfi_offset 6, -16
	movq	%rsp, %rbp
	.cfi_def_cfa_register 6
	subq	$48, %rsp
	movl	%edi, -20(%rbp)
	movl	%esi, -24(%rbp)
	movq	%rdx, -32(%rbp)
	movl	%ecx, -36(%rbp)
	movl	%r8d, -40(%rbp)
	movq	%r9, -48(%rbp)
	.loc 1 59 9
	movl	-20(%rbp), %eax
	leal	3(%rax), %edx
	testl	%eax, %eax
	cmovs	%edx, %eax
	sarl	$2, %eax
	movl	%eax, -12(%rbp)
	.loc 1 60 9
	movl	-20(%rbp), %edx
	movl	%edx, %eax
	sarl	$31, %eax
	shrl	$30, %eax
	addl	%eax, %edx
	andl	$3, %edx
	subl	%eax, %edx
	movl	%edx, -16(%rbp)
	.loc 1 64 11
	movl	$0, -4(%rbp)
	.loc 1 64 5
	jmp	.L7
.L8:
	.loc 1 65 9
	movq	-48(%rbp), %rdi
	movl	-40(%rbp), %ecx
	movl	-36(%rbp), %edx
	movq	-32(%rbp), %rsi
	movl	-24(%rbp), %eax
	movq	%rdi, %r8
	movl	%eax, %edi
	call	pack_MRxk
	.loc 1 66 21
	movl	-24(%rbp), %eax
	sall	$2, %eax
	cltq
	.loc 1 66 16
	salq	$3, %rax
	addq	%rax, -48(%rbp)
	.loc 1 67 21
	movl	-36(%rbp), %eax
	sall	$2, %eax
	cltq
	.loc 1 67 16
	salq	$3, %rax
	addq	%rax, -32(%rbp)
	.loc 1 64 21 discriminator 3
	addl	$1, -4(%rbp)
.L7:
	.loc 1 64 16 discriminator 1
	movl	-4(%rbp), %eax
	cmpl	-12(%rbp), %eax
	jl	.L8
	.loc 1 69 8
	cmpl	$0, -16(%rbp)
	jle	.L16
	.loc 1 70 15
	movl	$0, -8(%rbp)
	.loc 1 70 9
	jmp	.L10
.L15:
	.loc 1 71 19
	movl	$0, -4(%rbp)
	.loc 1 71 13
	jmp	.L11
.L12:
	.loc 1 72 32
	movl	-4(%rbp), %eax
	imull	-36(%rbp), %eax
	cltq
	.loc 1 72 30
	leaq	0(,%rax,8), %rdx
	movq	-32(%rbp), %rax
	addq	%rax, %rdx
	.loc 1 72 23
	movl	-4(%rbp), %eax
	cltq
	leaq	0(,%rax,8), %rcx
	movq	-48(%rbp), %rax
	addq	%rcx, %rax
	.loc 1 72 30
	movsd	(%rdx), %xmm0
	.loc 1 72 27
	movsd	%xmm0, (%rax)
	.loc 1 71 30 discriminator 3
	addl	$1, -4(%rbp)
.L11:
	.loc 1 71 24 discriminator 1
	movl	-4(%rbp), %eax
	cmpl	-16(%rbp), %eax
	jl	.L12
	.loc 1 74 19
	movl	-16(%rbp), %eax
	movl	%eax, -4(%rbp)
	.loc 1 74 13
	jmp	.L13
.L14:
	.loc 1 75 23
	movl	-4(%rbp), %eax
	cltq
	leaq	0(,%rax,8), %rdx
	movq	-48(%rbp), %rax
	addq	%rdx, %rax
	.loc 1 75 27
	pxor	%xmm0, %xmm0
	movsd	%xmm0, (%rax)
	.loc 1 74 31 discriminator 3
	addl	$1, -4(%rbp)
.L13:
	.loc 1 74 26 discriminator 1
	cmpl	$3, -4(%rbp)
	jle	.L14
	.loc 1 77 20
	addq	$32, -48(%rbp)
	.loc 1 78 20
	movl	-40(%rbp), %eax
	cltq
	salq	$3, %rax
	addq	%rax, -32(%rbp)
	.loc 1 70 25 discriminator 2
	addl	$1, -8(%rbp)
.L10:
	.loc 1 70 20 discriminator 1
	movl	-8(%rbp), %eax
	cmpl	-24(%rbp), %eax
	jl	.L15
.L16:
	.loc 1 81 1
	nop
	leave
	.cfi_def_cfa 7, 8
	ret
	.cfi_endproc
.LFE4866:
	.size	pack_A, .-pack_A
	.type	pack_kxNR, @function
pack_kxNR:
.LFB4867:
	.loc 1 89 1
	.cfi_startproc
	pushq	%rbp
	.cfi_def_cfa_offset 16
	.cfi_offset 6, -16
	movq	%rsp, %rbp
	.cfi_def_cfa_register 6
	movl	%edi, -20(%rbp)
	movq	%rsi, -32(%rbp)
	movl	%edx, -24(%rbp)
	movl	%ecx, -36(%rbp)
	movq	%r8, -48(%rbp)
	.loc 1 92 11
	movl	$0, -4(%rbp)
	.loc 1 92 5
	jmp	.L18
.L21:
	.loc 1 93 15
	movl	$0, -8(%rbp)
	.loc 1 93 9
	jmp	.L19
.L20:
	.loc 1 94 28
	movl	-8(%rbp), %eax
	imull	-36(%rbp), %eax
	cltq
	.loc 1 94 26
	leaq	0(,%rax,8), %rdx
	movq	-32(%rbp), %rax
	addq	%rax, %rdx
	.loc 1 94 19
	movl	-8(%rbp), %eax
	cltq
	leaq	0(,%rax,8), %rcx
	movq	-48(%rbp), %rax
	addq	%rcx, %rax
	.loc 1 94 26
	movsd	(%rdx), %xmm0
	.loc 1 94 23
	movsd	%xmm0, (%rax)
	.loc 1 93 25 discriminator 3
	addl	$1, -8(%rbp)
.L19:
	.loc 1 93 20 discriminator 1
	cmpl	$3, -8(%rbp)
	jle	.L20
	.loc 1 96 16
	addq	$32, -48(%rbp)
	.loc 1 97 16
	movl	-24(%rbp), %eax
	cltq
	salq	$3, %rax
	addq	%rax, -32(%rbp)
	.loc 1 92 20 discriminator 2
	addl	$1, -4(%rbp)
.L18:
	.loc 1 92 16 discriminator 1
	movl	-4(%rbp), %eax
	cmpl	-20(%rbp), %eax
	jl	.L21
	.loc 1 99 1
	nop
	nop
	popq	%rbp
	.cfi_def_cfa 7, 8
	ret
	.cfi_endproc
.LFE4867:
	.size	pack_kxNR, .-pack_kxNR
	.type	pack_B, @function
pack_B:
.LFB4868:
	.loc 1 107 1
	.cfi_startproc
	pushq	%rbp
	.cfi_def_cfa_offset 16
	.cfi_offset 6, -16
	movq	%rsp, %rbp
	.cfi_def_cfa_register 6
	subq	$48, %rsp
	movl	%edi, -20(%rbp)
	movl	%esi, -24(%rbp)
	movq	%rdx, -32(%rbp)
	movl	%ecx, -36(%rbp)
	movl	%r8d, -40(%rbp)
	movq	%r9, -48(%rbp)
	.loc 1 108 9
	movl	-24(%rbp), %eax
	leal	3(%rax), %edx
	testl	%eax, %eax
	cmovs	%edx, %eax
	sarl	$2, %eax
	movl	%eax, -12(%rbp)
	.loc 1 109 9
	movl	-24(%rbp), %edx
	movl	%edx, %eax
	sarl	$31, %eax
	shrl	$30, %eax
	addl	%eax, %edx
	andl	$3, %edx
	subl	%eax, %edx
	movl	%edx, -16(%rbp)
	.loc 1 113 11
	movl	$0, -8(%rbp)
	.loc 1 113 5
	jmp	.L23
.L24:
	.loc 1 114 9
	movq	-48(%rbp), %rdi
	movl	-40(%rbp), %ecx
	movl	-36(%rbp), %edx
	movq	-32(%rbp), %rsi
	movl	-20(%rbp), %eax
	movq	%rdi, %r8
	movl	%eax, %edi
	call	pack_kxNR
	.loc 1 115 21
	movl	-20(%rbp), %eax
	sall	$2, %eax
	cltq
	.loc 1 115 16
	salq	$3, %rax
	addq	%rax, -48(%rbp)
	.loc 1 116 21
	movl	-40(%rbp), %eax
	sall	$2, %eax
	cltq
	.loc 1 116 16
	salq	$3, %rax
	addq	%rax, -32(%rbp)
	.loc 1 113 21 discriminator 3
	addl	$1, -8(%rbp)
.L23:
	.loc 1 113 16 discriminator 1
	movl	-8(%rbp), %eax
	cmpl	-12(%rbp), %eax
	jl	.L24
	.loc 1 118 8
	cmpl	$0, -16(%rbp)
	jle	.L32
	.loc 1 119 15
	movl	$0, -4(%rbp)
	.loc 1 119 9
	jmp	.L26
.L31:
	.loc 1 120 19
	movl	$0, -8(%rbp)
	.loc 1 120 13
	jmp	.L27
.L28:
	.loc 1 121 32
	movl	-8(%rbp), %eax
	imull	-40(%rbp), %eax
	cltq
	.loc 1 121 30
	leaq	0(,%rax,8), %rdx
	movq	-32(%rbp), %rax
	addq	%rax, %rdx
	.loc 1 121 23
	movl	-8(%rbp), %eax
	cltq
	leaq	0(,%rax,8), %rcx
	movq	-48(%rbp), %rax
	addq	%rcx, %rax
	.loc 1 121 30
	movsd	(%rdx), %xmm0
	.loc 1 121 27
	movsd	%xmm0, (%rax)
	.loc 1 120 30 discriminator 3
	addl	$1, -8(%rbp)
.L27:
	.loc 1 120 24 discriminator 1
	movl	-8(%rbp), %eax
	cmpl	-16(%rbp), %eax
	jl	.L28
	.loc 1 123 19
	movl	-16(%rbp), %eax
	movl	%eax, -8(%rbp)
	.loc 1 123 13
	jmp	.L29
.L30:
	.loc 1 124 23
	movl	-8(%rbp), %eax
	cltq
	leaq	0(,%rax,8), %rdx
	movq	-48(%rbp), %rax
	addq	%rdx, %rax
	.loc 1 124 27
	pxor	%xmm0, %xmm0
	movsd	%xmm0, (%rax)
	.loc 1 123 31 discriminator 3
	addl	$1, -8(%rbp)
.L29:
	.loc 1 123 26 discriminator 1
	cmpl	$3, -8(%rbp)
	jle	.L30
	.loc 1 126 20
	addq	$32, -48(%rbp)
	.loc 1 127 20
	movl	-36(%rbp), %eax
	cltq
	salq	$3, %rax
	addq	%rax, -32(%rbp)
	.loc 1 119 25 discriminator 2
	addl	$1, -4(%rbp)
.L26:
	.loc 1 119 20 discriminator 1
	movl	-4(%rbp), %eax
	cmpl	-20(%rbp), %eax
	jl	.L31
.L32:
	.loc 1 130 1
	nop
	leave
	.cfi_def_cfa 7, 8
	ret
	.cfi_endproc
.LFE4868:
	.size	pack_B, .-pack_B
	.type	dgemm_micro_kernel, @function
dgemm_micro_kernel:
.LFB4869:
	.loc 1 141 1
	.cfi_startproc
	pushq	%rbp
	.cfi_def_cfa_offset 16
	.cfi_offset 6, -16
	movq	%rsp, %rbp
	.cfi_def_cfa_register 6
	subq	$80, %rsp
	movq	%rdi, -24(%rbp)
	movsd	%xmm0, -32(%rbp)
	movq	%rsi, -40(%rbp)
	movq	%rdx, -48(%rbp)
	movsd	%xmm1, -56(%rbp)
	movq	%rcx, -64(%rbp)
	movq	%r8, -72(%rbp)
	movq	%r9, -80(%rbp)
	.loc 1 142 10
	movq	-24(%rbp), %rax
	leaq	3(%rax), %rdx
	testq	%rax, %rax
	cmovs	%rdx, %rax
	sarq	$2, %rax
	movq	%rax, -8(%rbp)
	.loc 1 143 10
	movq	-24(%rbp), %rdx
	movq	%rdx, %rax
	sarq	$63, %rax
	shrq	$62, %rax
	addq	%rax, %rdx
	andl	$3, %edx
	subq	%rax, %rdx
	movq	%rdx, -16(%rbp)
	.loc 1 159 5
	movsd	-56(%rbp), %xmm0
	movq	-32(%rbp), %rdi
	movq	-16(%rbp), %r9
	movq	24(%rbp), %r8
	movq	16(%rbp), %rcx
	movq	-64(%rbp), %rdx
	movq	-48(%rbp), %rsi
	movq	-40(%rbp), %rax
	subq	$8, %rsp
	pushq	-80(%rbp)
	pushq	-72(%rbp)
	pushq	-8(%rbp)
	movapd	%xmm0, %xmm1
	movq	%rdi, %xmm0
	movq	%rax, %rdi
	call	dgemm_kernel_asm@PLT
	addq	$32, %rsp
	.loc 1 164 1
	nop
	leave
	.cfi_def_cfa 7, 8
	ret
	.cfi_endproc
.LFE4869:
	.size	dgemm_micro_kernel, .-dgemm_micro_kernel
	.type	dgeaxpy, @function
dgeaxpy:
.LFB4870:
	.loc 1 556 1
	.cfi_startproc
	pushq	%rbp
	.cfi_def_cfa_offset 16
	.cfi_offset 6, -16
	movq	%rsp, %rbp
	.cfi_def_cfa_register 6
	movl	%edi, -20(%rbp)
	movl	%esi, -24(%rbp)
	movsd	%xmm0, -32(%rbp)
	movq	%rdx, -40(%rbp)
	movl	%ecx, -44(%rbp)
	movl	%r8d, -48(%rbp)
	movq	%r9, -56(%rbp)
	.loc 1 560 8
	movsd	.LC1(%rip), %xmm0
	ucomisd	-32(%rbp), %xmm0
	jp	.L46
	movsd	.LC1(%rip), %xmm0
	ucomisd	-32(%rbp), %xmm0
	je	.L35
.L46:
	.loc 1 561 15
	movl	$0, -8(%rbp)
	.loc 1 561 9
	jmp	.L37
.L40:
	.loc 1 562 19
	movl	$0, -4(%rbp)
	.loc 1 562 13
	jmp	.L38
.L39:
	.loc 1 563 18
	movl	-4(%rbp), %eax
	imull	16(%rbp), %eax
	movl	%eax, %edx
	movl	-8(%rbp), %eax
	imull	24(%rbp), %eax
	addl	%edx, %eax
	cltq
	leaq	0(,%rax,8), %rdx
	movq	-56(%rbp), %rax
	addq	%rdx, %rax
	movsd	(%rax), %xmm1
	.loc 1 563 52
	movl	-4(%rbp), %eax
	imull	-44(%rbp), %eax
	movl	%eax, %edx
	.loc 1 563 62
	movl	-8(%rbp), %eax
	imull	-48(%rbp), %eax
	.loc 1 563 60
	addl	%edx, %eax
	cltq
	.loc 1 563 50
	leaq	0(,%rax,8), %rdx
	movq	-40(%rbp), %rax
	addq	%rdx, %rax
	movsd	(%rax), %xmm0
	.loc 1 563 48
	mulsd	-32(%rbp), %xmm0
	.loc 1 563 18
	movl	-4(%rbp), %eax
	imull	16(%rbp), %eax
	movl	%eax, %edx
	movl	-8(%rbp), %eax
	imull	24(%rbp), %eax
	addl	%edx, %eax
	cltq
	leaq	0(,%rax,8), %rdx
	movq	-56(%rbp), %rax
	addq	%rdx, %rax
	.loc 1 563 40
	addsd	%xmm1, %xmm0
	movsd	%xmm0, (%rax)
	.loc 1 562 28 discriminator 3
	addl	$1, -4(%rbp)
.L38:
	.loc 1 562 24 discriminator 1
	movl	-4(%rbp), %eax
	cmpl	-20(%rbp), %eax
	jl	.L39
	.loc 1 561 24 discriminator 2
	addl	$1, -8(%rbp)
.L37:
	.loc 1 561 20 discriminator 1
	movl	-8(%rbp), %eax
	cmpl	-24(%rbp), %eax
	jl	.L40
	.loc 1 573 1
	jmp	.L47
.L35:
	.loc 1 567 15
	movl	$0, -8(%rbp)
	.loc 1 567 9
	jmp	.L42
.L45:
	.loc 1 568 19
	movl	$0, -4(%rbp)
	.loc 1 568 13
	jmp	.L43
.L44:
	.loc 1 569 18
	movl	-4(%rbp), %eax
	imull	16(%rbp), %eax
	movl	%eax, %edx
	movl	-8(%rbp), %eax
	imull	24(%rbp), %eax
	addl	%edx, %eax
	cltq
	leaq	0(,%rax,8), %rdx
	movq	-56(%rbp), %rax
	addq	%rdx, %rax
	movsd	(%rax), %xmm1
	.loc 1 569 46
	movl	-4(%rbp), %eax
	imull	-44(%rbp), %eax
	movl	%eax, %edx
	.loc 1 569 56
	movl	-8(%rbp), %eax
	imull	-48(%rbp), %eax
	.loc 1 569 54
	addl	%edx, %eax
	cltq
	.loc 1 569 44
	leaq	0(,%rax,8), %rdx
	movq	-40(%rbp), %rax
	addq	%rdx, %rax
	movsd	(%rax), %xmm0
	.loc 1 569 18
	movl	-4(%rbp), %eax
	imull	16(%rbp), %eax
	movl	%eax, %edx
	movl	-8(%rbp), %eax
	imull	24(%rbp), %eax
	addl	%edx, %eax
	cltq
	leaq	0(,%rax,8), %rdx
	movq	-56(%rbp), %rax
	addq	%rdx, %rax
	.loc 1 569 40
	addsd	%xmm1, %xmm0
	movsd	%xmm0, (%rax)
	.loc 1 568 28 discriminator 3
	addl	$1, -4(%rbp)
.L43:
	.loc 1 568 24 discriminator 1
	movl	-4(%rbp), %eax
	cmpl	-20(%rbp), %eax
	jl	.L44
	.loc 1 567 24 discriminator 2
	addl	$1, -8(%rbp)
.L42:
	.loc 1 567 20 discriminator 1
	movl	-8(%rbp), %eax
	cmpl	-24(%rbp), %eax
	jl	.L45
.L47:
	.loc 1 573 1
	nop
	popq	%rbp
	.cfi_def_cfa 7, 8
	ret
	.cfi_endproc
.LFE4870:
	.size	dgeaxpy, .-dgeaxpy
	.type	dgescal, @function
dgescal:
.LFB4871:
	.loc 1 585 1
	.cfi_startproc
	pushq	%rbp
	.cfi_def_cfa_offset 16
	.cfi_offset 6, -16
	movq	%rsp, %rbp
	.cfi_def_cfa_register 6
	movl	%edi, -20(%rbp)
	movl	%esi, -24(%rbp)
	movsd	%xmm0, -32(%rbp)
	movq	%rdx, -40(%rbp)
	movl	%ecx, -44(%rbp)
	movl	%r8d, -48(%rbp)
	.loc 1 588 8
	pxor	%xmm0, %xmm0
	ucomisd	-32(%rbp), %xmm0
	jp	.L60
	pxor	%xmm0, %xmm0
	ucomisd	-32(%rbp), %xmm0
	je	.L49
.L60:
	.loc 1 589 15
	movl	$0, -8(%rbp)
	.loc 1 589 9
	jmp	.L51
.L54:
	.loc 1 590 19
	movl	$0, -4(%rbp)
	.loc 1 590 13
	jmp	.L52
.L53:
	.loc 1 591 18
	movl	-4(%rbp), %eax
	imull	-44(%rbp), %eax
	movl	%eax, %edx
	movl	-8(%rbp), %eax
	imull	-48(%rbp), %eax
	addl	%edx, %eax
	cltq
	leaq	0(,%rax,8), %rdx
	movq	-40(%rbp), %rax
	addq	%rdx, %rax
	movsd	(%rax), %xmm0
	movl	-4(%rbp), %eax
	imull	-44(%rbp), %eax
	movl	%eax, %edx
	movl	-8(%rbp), %eax
	imull	-48(%rbp), %eax
	addl	%edx, %eax
	cltq
	leaq	0(,%rax,8), %rdx
	movq	-40(%rbp), %rax
	addq	%rdx, %rax
	.loc 1 591 40
	mulsd	-32(%rbp), %xmm0
	movsd	%xmm0, (%rax)
	.loc 1 590 28 discriminator 3
	addl	$1, -4(%rbp)
.L52:
	.loc 1 590 24 discriminator 1
	movl	-4(%rbp), %eax
	cmpl	-20(%rbp), %eax
	jl	.L53
	.loc 1 589 24 discriminator 2
	addl	$1, -8(%rbp)
.L51:
	.loc 1 589 20 discriminator 1
	movl	-8(%rbp), %eax
	cmpl	-24(%rbp), %eax
	jl	.L54
	.loc 1 601 1
	jmp	.L61
.L49:
	.loc 1 595 15
	movl	$0, -8(%rbp)
	.loc 1 595 9
	jmp	.L56
.L59:
	.loc 1 596 19
	movl	$0, -4(%rbp)
	.loc 1 596 13
	jmp	.L57
.L58:
	.loc 1 597 20
	movl	-4(%rbp), %eax
	imull	-44(%rbp), %eax
	movl	%eax, %edx
	.loc 1 597 30
	movl	-8(%rbp), %eax
	imull	-48(%rbp), %eax
	.loc 1 597 28
	addl	%edx, %eax
	cltq
	.loc 1 597 18
	leaq	0(,%rax,8), %rdx
	movq	-40(%rbp), %rax
	addq	%rdx, %rax
	.loc 1 597 40
	pxor	%xmm0, %xmm0
	movsd	%xmm0, (%rax)
	.loc 1 596 28 discriminator 3
	addl	$1, -4(%rbp)
.L57:
	.loc 1 596 24 discriminator 1
	movl	-4(%rbp), %eax
	cmpl	-20(%rbp), %eax
	jl	.L58
	.loc 1 595 24 discriminator 2
	addl	$1, -8(%rbp)
.L56:
	.loc 1 595 20 discriminator 1
	movl	-8(%rbp), %eax
	cmpl	-24(%rbp), %eax
	jl	.L59
.L61:
	.loc 1 601 1
	nop
	popq	%rbp
	.cfi_def_cfa 7, 8
	ret
	.cfi_endproc
.LFE4871:
	.size	dgescal, .-dgescal
	.type	dgemm_macro_kernel, @function
dgemm_macro_kernel:
.LFB4872:
	.loc 1 616 1
	.cfi_startproc
	pushq	%rbp
	.cfi_def_cfa_offset 16
	.cfi_offset 6, -16
	movq	%rsp, %rbp
	.cfi_def_cfa_register 6
	subq	$96, %rsp
	movl	%edi, -52(%rbp)
	movl	%esi, -56(%rbp)
	movl	%edx, -60(%rbp)
	movsd	%xmm0, -72(%rbp)
	movsd	%xmm1, -80(%rbp)
	movq	%rcx, -88(%rbp)
	movl	%r8d, -64(%rbp)
	movl	%r9d, -92(%rbp)
	.loc 1 617 20
	movl	-52(%rbp), %eax
	addl	$3, %eax
	.loc 1 617 9
	leal	3(%rax), %edx
	testl	%eax, %eax
	cmovs	%edx, %eax
	sarl	$2, %eax
	movl	%eax, -28(%rbp)
	.loc 1 618 20
	movl	-56(%rbp), %eax
	addl	$3, %eax
	.loc 1 618 9
	leal	3(%rax), %edx
	testl	%eax, %eax
	cmovs	%edx, %eax
	sarl	$2, %eax
	movl	%eax, -32(%rbp)
	.loc 1 620 9
	movl	-52(%rbp), %edx
	movl	%edx, %eax
	sarl	$31, %eax
	shrl	$30, %eax
	addl	%eax, %edx
	andl	$3, %edx
	subl	%eax, %edx
	movl	%edx, -36(%rbp)
	.loc 1 621 9
	movl	-56(%rbp), %edx
	movl	%edx, %eax
	sarl	$31, %eax
	shrl	$30, %eax
	addl	%eax, %edx
	andl	$3, %edx
	subl	%eax, %edx
	movl	%edx, -40(%rbp)
	.loc 1 629 11
	movl	$0, -8(%rbp)
	.loc 1 629 5
	jmp	.L63
.L73:
	.loc 1 630 23
	movl	-32(%rbp), %eax
	subl	$1, %eax
	.loc 1 630 42
	cmpl	%eax, -8(%rbp)
	jne	.L64
	.loc 1 630 26 discriminator 1
	cmpl	$0, -40(%rbp)
	je	.L64
	.loc 1 630 42 discriminator 3
	movl	-40(%rbp), %eax
	.loc 1 630 42 is_stmt 0
	jmp	.L65
.L64:
	.loc 1 630 42 discriminator 4
	movl	$4, %eax
.L65:
	.loc 1 630 15 is_stmt 1 discriminator 6
	movl	%eax, -44(%rbp)
	.loc 1 631 22
	movl	-8(%rbp), %eax
	imull	-60(%rbp), %eax
	.loc 1 631 25
	sall	$2, %eax
	.loc 1 631 15
	cltq
	leaq	0(,%rax,8), %rdx
	leaq	_B(%rip), %rax
	addq	%rdx, %rax
	movq	%rax, -24(%rbp)
	.loc 1 633 15
	movl	$0, -4(%rbp)
	.loc 1 633 9
	jmp	.L66
.L72:
	.loc 1 634 27
	movl	-28(%rbp), %eax
	subl	$1, %eax
	.loc 1 634 46
	cmpl	%eax, -4(%rbp)
	jne	.L67
	.loc 1 634 30 discriminator 1
	cmpl	$0, -36(%rbp)
	je	.L67
	.loc 1 634 46 discriminator 3
	movl	-36(%rbp), %eax
	.loc 1 634 46 is_stmt 0
	jmp	.L68
.L67:
	.loc 1 634 46 discriminator 4
	movl	$4, %eax
.L68:
	.loc 1 634 19 is_stmt 1 discriminator 6
	movl	%eax, -48(%rbp)
	.loc 1 635 27
	movl	-4(%rbp), %eax
	addl	$1, %eax
	.loc 1 635 30
	imull	-60(%rbp), %eax
	.loc 1 635 33
	sall	$2, %eax
	.loc 1 635 19
	cltq
	leaq	0(,%rax,8), %rdx
	leaq	_A(%rip), %rax
	addq	%rdx, %rax
	movq	%rax, -16(%rbp)
	.loc 1 637 22
	movl	-28(%rbp), %eax
	subl	$1, %eax
	.loc 1 637 16
	cmpl	%eax, -4(%rbp)
	jne	.L69
	.loc 1 638 23
	leaq	_A(%rip), %rax
	movq	%rax, -16(%rbp)
	.loc 1 639 31
	movl	-8(%rbp), %eax
	addl	$1, %eax
	.loc 1 639 34
	imull	-60(%rbp), %eax
	.loc 1 639 37
	sall	$2, %eax
	.loc 1 639 23
	cltq
	leaq	0(,%rax,8), %rdx
	leaq	_B(%rip), %rax
	addq	%rdx, %rax
	movq	%rax, -24(%rbp)
	.loc 1 640 26
	movl	-32(%rbp), %eax
	subl	$1, %eax
	.loc 1 640 20
	cmpl	%eax, -8(%rbp)
	jne	.L69
	.loc 1 641 27
	leaq	_B(%rip), %rax
	movq	%rax, -24(%rbp)
.L69:
	.loc 1 645 16
	cmpl	$4, -48(%rbp)
	jne	.L70
	.loc 1 645 24 discriminator 1
	cmpl	$4, -44(%rbp)
	jne	.L70
	.loc 1 646 17
	movl	-92(%rbp), %eax
	movslq	%eax, %r9
	movl	-64(%rbp), %eax
	movslq	%eax, %r8
	.loc 1 648 43
	movl	-4(%rbp), %eax
	imull	-64(%rbp), %eax
	movl	%eax, %edx
	.loc 1 648 56
	movl	-8(%rbp), %eax
	imull	-92(%rbp), %eax
	.loc 1 648 51
	addl	%edx, %eax
	sall	$2, %eax
	cltq
	.loc 1 648 38
	leaq	0(,%rax,8), %rdx
	.loc 1 646 17
	movq	-88(%rbp), %rax
	leaq	(%rdx,%rax), %rcx
	.loc 1 646 66
	movl	-8(%rbp), %eax
	imull	-60(%rbp), %eax
	.loc 1 646 69
	sall	$2, %eax
	.loc 1 646 61
	cltq
	leaq	0(,%rax,8), %rdx
	leaq	_B(%rip), %rax
	addq	%rax, %rdx
	.loc 1 646 52
	movl	-4(%rbp), %eax
	imull	-60(%rbp), %eax
	.loc 1 646 55
	sall	$2, %eax
	.loc 1 646 47
	cltq
	leaq	0(,%rax,8), %rsi
	leaq	_A(%rip), %rax
	addq	%rax, %rsi
	.loc 1 646 17
	movl	-60(%rbp), %eax
	cltq
	movsd	-80(%rbp), %xmm0
	movq	-72(%rbp), %rdi
	pushq	-24(%rbp)
	pushq	-16(%rbp)
	movapd	%xmm0, %xmm1
	movq	%rdi, %xmm0
	movq	%rax, %rdi
	call	dgemm_micro_kernel
	addq	$16, %rsp
	jmp	.L71
.L70:
	.loc 1 652 66
	movl	-8(%rbp), %eax
	imull	-60(%rbp), %eax
	.loc 1 652 69
	sall	$2, %eax
	.loc 1 652 61
	cltq
	leaq	0(,%rax,8), %rdx
	leaq	_B(%rip), %rax
	addq	%rax, %rdx
	.loc 1 652 52
	movl	-4(%rbp), %eax
	imull	-60(%rbp), %eax
	.loc 1 652 55
	sall	$2, %eax
	.loc 1 652 47
	cltq
	leaq	0(,%rax,8), %rcx
	leaq	_A(%rip), %rax
	leaq	(%rcx,%rax), %rsi
	.loc 1 652 17
	movl	-60(%rbp), %eax
	cltq
	movq	-72(%rbp), %rdi
	pushq	-24(%rbp)
	pushq	-16(%rbp)
	movl	$4, %r9d
	movl	$1, %r8d
	leaq	_C(%rip), %rcx
	pxor	%xmm1, %xmm1
	movq	%rdi, %xmm0
	movq	%rax, %rdi
	call	dgemm_micro_kernel
	addq	$16, %rsp
	.loc 1 657 32
	movl	-4(%rbp), %eax
	imull	-64(%rbp), %eax
	movl	%eax, %edx
	.loc 1 657 45
	movl	-8(%rbp), %eax
	imull	-92(%rbp), %eax
	.loc 1 657 40
	addl	%edx, %eax
	sall	$2, %eax
	cltq
	.loc 1 657 27
	leaq	0(,%rax,8), %rdx
	.loc 1 656 17
	movq	-88(%rbp), %rax
	leaq	(%rdx,%rax), %r9
	movl	-92(%rbp), %ecx
	movl	-64(%rbp), %edx
	movq	-80(%rbp), %rdi
	movl	-44(%rbp), %esi
	movl	-48(%rbp), %eax
	movl	%ecx, %r8d
	movl	%edx, %ecx
	movq	%r9, %rdx
	movq	%rdi, %xmm0
	movl	%eax, %edi
	call	dgescal
	.loc 1 659 32
	movl	-4(%rbp), %eax
	imull	-64(%rbp), %eax
	movl	%eax, %edx
	.loc 1 659 45
	movl	-8(%rbp), %eax
	imull	-92(%rbp), %eax
	.loc 1 659 40
	addl	%edx, %eax
	sall	$2, %eax
	cltq
	.loc 1 659 27
	leaq	0(,%rax,8), %rdx
	.loc 1 658 17
	movq	-88(%rbp), %rax
	leaq	(%rdx,%rax), %rcx
	movq	.LC1(%rip), %rdi
	movl	-44(%rbp), %esi
	movl	-48(%rbp), %eax
	movl	-92(%rbp), %edx
	pushq	%rdx
	movl	-64(%rbp), %edx
	pushq	%rdx
	movq	%rcx, %r9
	movl	$4, %r8d
	movl	$1, %ecx
	leaq	_C(%rip), %rdx
	movq	%rdi, %xmm0
	movl	%eax, %edi
	call	dgeaxpy
	addq	$16, %rsp
.L71:
	.loc 1 633 25 discriminator 2
	addl	$1, -4(%rbp)
.L66:
	.loc 1 633 20 discriminator 1
	movl	-4(%rbp), %eax
	cmpl	-28(%rbp), %eax
	jl	.L72
	.loc 1 629 21 discriminator 2
	addl	$1, -8(%rbp)
.L63:
	.loc 1 629 16 discriminator 1
	movl	-8(%rbp), %eax
	cmpl	-32(%rbp), %eax
	jl	.L73
	.loc 1 663 1
	nop
	nop
	leave
	.cfi_def_cfa 7, 8
	ret
	.cfi_endproc
.LFE4872:
	.size	dgemm_macro_kernel, .-dgemm_macro_kernel
	.globl	dgemm_nn
	.type	dgemm_nn, @function
dgemm_nn:
.LFB4873:
	.loc 1 682 1
	.cfi_startproc
	pushq	%rbp
	.cfi_def_cfa_offset 16
	.cfi_offset 6, -16
	movq	%rsp, %rbp
	.cfi_def_cfa_register 6
	subq	$112, %rsp
	movl	%edi, -68(%rbp)
	movl	%esi, -72(%rbp)
	movl	%edx, -76(%rbp)
	movsd	%xmm0, -88(%rbp)
	movq	%rcx, -96(%rbp)
	movl	%r8d, -80(%rbp)
	movl	%r9d, -100(%rbp)
	movsd	%xmm1, -112(%rbp)
	.loc 1 683 19
	movl	-68(%rbp), %eax
	addl	$383, %eax
	.loc 1 683 9
	movslq	%eax, %rdx
	imulq	$715827883, %rdx, %rdx
	shrq	$32, %rdx
	movl	%edx, %ecx
	sarl	$6, %ecx
	cltd
	movl	%ecx, %eax
	subl	%edx, %eax
	movl	%eax, -16(%rbp)
	.loc 1 684 19
	movl	-72(%rbp), %eax
	addl	$4095, %eax
	.loc 1 684 9
	leal	4095(%rax), %edx
	testl	%eax, %eax
	cmovs	%edx, %eax
	sarl	$12, %eax
	movl	%eax, -20(%rbp)
	.loc 1 685 19
	movl	-76(%rbp), %eax
	addl	$383, %eax
	.loc 1 685 9
	movslq	%eax, %rdx
	imulq	$715827883, %rdx, %rdx
	shrq	$32, %rdx
	movl	%edx, %ecx
	sarl	$6, %ecx
	cltd
	movl	%ecx, %eax
	subl	%edx, %eax
	movl	%eax, -24(%rbp)
	.loc 1 687 9
	movl	-68(%rbp), %edx
	movslq	%edx, %rax
	imulq	$715827883, %rax, %rax
	shrq	$32, %rax
	movl	%eax, %ecx
	sarl	$6, %ecx
	movl	%edx, %eax
	sarl	$31, %eax
	subl	%eax, %ecx
	movl	%ecx, %eax
	addl	%eax, %eax
	addl	%ecx, %eax
	sall	$7, %eax
	subl	%eax, %edx
	movl	%edx, -28(%rbp)
	.loc 1 688 9
	movl	-72(%rbp), %edx
	movl	%edx, %eax
	sarl	$31, %eax
	shrl	$20, %eax
	addl	%eax, %edx
	andl	$4095, %edx
	subl	%eax, %edx
	movl	%edx, -32(%rbp)
	.loc 1 689 9
	movl	-76(%rbp), %edx
	movslq	%edx, %rax
	imulq	$715827883, %rax, %rax
	shrq	$32, %rax
	movl	%eax, %ecx
	sarl	$6, %ecx
	movl	%edx, %eax
	sarl	$31, %eax
	subl	%eax, %ecx
	movl	%ecx, %eax
	addl	%eax, %eax
	addl	%ecx, %eax
	sall	$7, %eax
	subl	%eax, %edx
	movl	%edx, -36(%rbp)
	.loc 1 696 8
	pxor	%xmm0, %xmm0
	ucomisd	-88(%rbp), %xmm0
	jp	.L93
	pxor	%xmm0, %xmm0
	ucomisd	-88(%rbp), %xmm0
	je	.L75
.L93:
	.loc 1 696 20 discriminator 1
	cmpl	$0, -76(%rbp)
	jne	.L77
.L75:
	.loc 1 697 9
	movl	56(%rbp), %r8d
	movl	48(%rbp), %ecx
	movq	40(%rbp), %rdx
	movq	-112(%rbp), %rdi
	movl	-72(%rbp), %esi
	movl	-68(%rbp), %eax
	movq	%rdi, %xmm0
	movl	%eax, %edi
	call	dgescal
	.loc 1 698 9
	jmp	.L74
.L77:
	.loc 1 701 11
	movl	$0, -8(%rbp)
	.loc 1 701 5
	jmp	.L79
.L92:
	.loc 1 702 20
	movl	-20(%rbp), %eax
	subl	$1, %eax
	.loc 1 702 39
	cmpl	%eax, -8(%rbp)
	jne	.L80
	.loc 1 702 23 discriminator 1
	cmpl	$0, -32(%rbp)
	je	.L80
	.loc 1 702 39 discriminator 3
	movl	-32(%rbp), %eax
	.loc 1 702 39 is_stmt 0
	jmp	.L81
.L80:
	.loc 1 702 39 discriminator 4
	movl	$4096, %eax
.L81:
	.loc 1 702 12 is_stmt 1 discriminator 6
	movl	%eax, -40(%rbp)
	.loc 1 704 15
	movl	$0, -12(%rbp)
	.loc 1 704 9
	jmp	.L82
.L91:
	.loc 1 705 27
	movl	-24(%rbp), %eax
	subl	$1, %eax
	.loc 1 705 48
	cmpl	%eax, -12(%rbp)
	jne	.L83
	.loc 1 705 30 discriminator 1
	cmpl	$0, -36(%rbp)
	je	.L83
	.loc 1 705 48 discriminator 3
	movl	-36(%rbp), %eax
	.loc 1 705 48 is_stmt 0
	jmp	.L84
.L83:
	.loc 1 705 48 discriminator 4
	movl	$384, %eax
.L84:
	.loc 1 705 19 is_stmt 1 discriminator 6
	movl	%eax, -44(%rbp)
	.loc 1 706 35
	cmpl	$0, -12(%rbp)
	jne	.L85
	.loc 1 706 35 is_stmt 0 discriminator 1
	movsd	-112(%rbp), %xmm0
	jmp	.L86
.L85:
	.loc 1 706 35 discriminator 2
	movsd	.LC1(%rip), %xmm0
.L86:
	.loc 1 706 19 is_stmt 1 discriminator 4
	movsd	%xmm0, -56(%rbp)
	.loc 1 709 27
	movl	-12(%rbp), %eax
	imull	24(%rbp), %eax
	movl	%eax, %edx
	movl	%edx, %eax
	addl	%eax, %eax
	addl	%edx, %eax
	sall	$7, %eax
	movl	%eax, %edx
	.loc 1 709 40
	movl	-8(%rbp), %eax
	imull	32(%rbp), %eax
	sall	$12, %eax
	.loc 1 709 35
	addl	%edx, %eax
	cltq
	.loc 1 709 22
	leaq	0(,%rax,8), %rdx
	.loc 1 708 13
	movq	16(%rbp), %rax
	leaq	(%rdx,%rax), %rdi
	movl	32(%rbp), %ecx
	movl	24(%rbp), %edx
	movl	-40(%rbp), %esi
	movl	-44(%rbp), %eax
	leaq	_B(%rip), %r9
	movl	%ecx, %r8d
	movl	%edx, %ecx
	movq	%rdi, %rdx
	movl	%eax, %edi
	call	pack_B
	.loc 1 712 19
	movl	$0, -4(%rbp)
	.loc 1 712 13
	jmp	.L87
.L90:
	.loc 1 713 28
	movl	-16(%rbp), %eax
	subl	$1, %eax
	.loc 1 713 47
	cmpl	%eax, -4(%rbp)
	jne	.L88
	.loc 1 713 31 discriminator 1
	cmpl	$0, -28(%rbp)
	je	.L88
	.loc 1 713 47 discriminator 3
	movl	-28(%rbp), %eax
	.loc 1 713 47 is_stmt 0
	jmp	.L89
.L88:
	.loc 1 713 47 discriminator 4
	movl	$384, %eax
.L89:
	.loc 1 713 20 is_stmt 1 discriminator 6
	movl	%eax, -60(%rbp)
	.loc 1 716 31
	movl	-4(%rbp), %eax
	imull	-80(%rbp), %eax
	movl	%eax, %edx
	.loc 1 716 44
	movl	-12(%rbp), %eax
	imull	-100(%rbp), %eax
	.loc 1 716 39
	addl	%eax, %edx
	movl	%edx, %eax
	addl	%eax, %eax
	addl	%edx, %eax
	sall	$7, %eax
	cltq
	.loc 1 716 26
	leaq	0(,%rax,8), %rdx
	.loc 1 715 17
	movq	-96(%rbp), %rax
	leaq	(%rdx,%rax), %rdi
	movl	-100(%rbp), %ecx
	movl	-80(%rbp), %edx
	movl	-44(%rbp), %esi
	movl	-60(%rbp), %eax
	leaq	_A(%rip), %r9
	movl	%ecx, %r8d
	movl	%edx, %ecx
	movq	%rdi, %rdx
	movl	%eax, %edi
	call	pack_A
	.loc 1 720 43
	movl	-4(%rbp), %eax
	imull	48(%rbp), %eax
	movl	%eax, %edx
	movl	%edx, %eax
	addl	%eax, %eax
	addl	%edx, %eax
	sall	$7, %eax
	movl	%eax, %edx
	.loc 1 720 56
	movl	-8(%rbp), %eax
	imull	56(%rbp), %eax
	sall	$12, %eax
	.loc 1 720 51
	addl	%edx, %eax
	cltq
	.loc 1 720 38
	leaq	0(,%rax,8), %rdx
	.loc 1 719 17
	movq	40(%rbp), %rax
	leaq	(%rdx,%rax), %rcx
	movl	56(%rbp), %r9d
	movl	48(%rbp), %r8d
	movsd	-56(%rbp), %xmm0
	movq	-88(%rbp), %rdi
	movl	-44(%rbp), %edx
	movl	-40(%rbp), %esi
	movl	-60(%rbp), %eax
	movapd	%xmm0, %xmm1
	movq	%rdi, %xmm0
	movl	%eax, %edi
	call	dgemm_macro_kernel
	.loc 1 712 29 discriminator 2
	addl	$1, -4(%rbp)
.L87:
	.loc 1 712 24 discriminator 1
	movl	-4(%rbp), %eax
	cmpl	-16(%rbp), %eax
	jl	.L90
	.loc 1 704 25 discriminator 2
	addl	$1, -12(%rbp)
.L82:
	.loc 1 704 20 discriminator 1
	movl	-12(%rbp), %eax
	cmpl	-24(%rbp), %eax
	jl	.L91
	.loc 1 701 21 discriminator 2
	addl	$1, -8(%rbp)
.L79:
	.loc 1 701 16 discriminator 1
	movl	-8(%rbp), %eax
	cmpl	-20(%rbp), %eax
	jl	.L92
.L74:
	.loc 1 725 1
	leave
	.cfi_def_cfa 7, 8
	ret
	.cfi_endproc
.LFE4873:
	.size	dgemm_nn, .-dgemm_nn
	.globl	fill_matrix
	.type	fill_matrix, @function
fill_matrix:
.LFB4874:
	.loc 1 730 51
	.cfi_startproc
	pushq	%rbp
	.cfi_def_cfa_offset 16
	.cfi_offset 6, -16
	movq	%rsp, %rbp
	.cfi_def_cfa_register 6
	subq	$32, %rsp
	movq	%rdi, -24(%rbp)
	movl	%esi, -28(%rbp)
	movl	%edx, -32(%rbp)
.LBB2:
	.loc 1 731 14
	movl	$0, -4(%rbp)
	.loc 1 731 5
	jmp	.L95
.L96:
	.loc 1 732 26
	call	rand@PLT
	.loc 1 732 18 discriminator 1
	pxor	%xmm0, %xmm0
	cvtsi2sdl	%eax, %xmm0
	.loc 1 732 12 discriminator 1
	movl	-4(%rbp), %eax
	cltq
	leaq	0(,%rax,8), %rdx
	movq	-24(%rbp), %rax
	addq	%rdx, %rax
	.loc 1 732 33 discriminator 1
	movsd	.LC2(%rip), %xmm1
	divsd	%xmm1, %xmm0
	.loc 1 732 16 discriminator 1
	movsd	%xmm0, (%rax)
	.loc 1 731 38 discriminator 3
	addl	$1, -4(%rbp)
.L95:
	.loc 1 731 30 discriminator 1
	movl	-28(%rbp), %eax
	imull	-32(%rbp), %eax
	.loc 1 731 23 discriminator 1
	cmpl	%eax, -4(%rbp)
	jl	.L96
.LBE2:
	.loc 1 734 1
	nop
	nop
	leave
	.cfi_def_cfa 7, 8
	ret
	.cfi_endproc
.LFE4874:
	.size	fill_matrix, .-fill_matrix
	.section	.rodata
.LC3:
	.string	"%.2f "
	.text
	.globl	print_matrix
	.type	print_matrix, @function
print_matrix:
.LFB4875:
	.loc 1 736 52
	.cfi_startproc
	pushq	%rbp
	.cfi_def_cfa_offset 16
	.cfi_offset 6, -16
	movq	%rsp, %rbp
	.cfi_def_cfa_register 6
	subq	$32, %rsp
	movq	%rdi, -24(%rbp)
	movl	%esi, -28(%rbp)
	movl	%edx, -32(%rbp)
.LBB3:
	.loc 1 737 14
	movl	$0, -4(%rbp)
	.loc 1 737 5
	jmp	.L98
.L101:
.LBB4:
	.loc 1 738 18
	movl	$0, -8(%rbp)
	.loc 1 738 9
	jmp	.L99
.L100:
	.loc 1 739 35
	movl	-4(%rbp), %eax
	imull	-32(%rbp), %eax
	movl	%eax, %edx
	.loc 1 739 42
	movl	-8(%rbp), %eax
	addl	%edx, %eax
	cltq
	.loc 1 739 32
	leaq	0(,%rax,8), %rdx
	movq	-24(%rbp), %rax
	addq	%rdx, %rax
	.loc 1 739 13
	movq	(%rax), %rax
	movq	%rax, %xmm0
	leaq	.LC3(%rip), %rax
	movq	%rax, %rdi
	movl	$1, %eax
	call	printf@PLT
	.loc 1 738 35 discriminator 3
	addl	$1, -8(%rbp)
.L99:
	.loc 1 738 27 discriminator 1
	movl	-8(%rbp), %eax
	cmpl	-32(%rbp), %eax
	jl	.L100
.LBE4:
	.loc 1 741 9
	movl	$10, %edi
	call	putchar@PLT
	.loc 1 737 31 discriminator 2
	addl	$1, -4(%rbp)
.L98:
	.loc 1 737 23 discriminator 1
	movl	-4(%rbp), %eax
	cmpl	-28(%rbp), %eax
	jl	.L101
.LBE3:
	.loc 1 743 1
	nop
	nop
	leave
	.cfi_def_cfa 7, 8
	ret
	.cfi_endproc
.LFE4875:
	.size	print_matrix, .-print_matrix
	.globl	naive_matrix_multiply
	.type	naive_matrix_multiply, @function
naive_matrix_multiply:
.LFB4876:
	.loc 1 745 71
	.cfi_startproc
	pushq	%rbp
	.cfi_def_cfa_offset 16
	.cfi_offset 6, -16
	movq	%rsp, %rbp
	.cfi_def_cfa_register 6
	movq	%rdi, -40(%rbp)
	movq	%rsi, -48(%rbp)
	movq	%rdx, -56(%rbp)
	movl	%ecx, -60(%rbp)
.LBB5:
	.loc 1 746 14
	movl	$0, -4(%rbp)
	.loc 1 746 5
	jmp	.L103
.L108:
.LBB6:
	.loc 1 747 18
	movl	$0, -8(%rbp)
	.loc 1 747 9
	jmp	.L104
.L107:
.LBB7:
	.loc 1 748 20
	pxor	%xmm0, %xmm0
	movsd	%xmm0, -16(%rbp)
.LBB8:
	.loc 1 749 22
	movl	$0, -20(%rbp)
	.loc 1 749 13
	jmp	.L105
.L106:
	.loc 1 750 28
	movl	-4(%rbp), %eax
	imull	-60(%rbp), %eax
	movl	%eax, %edx
	.loc 1 750 35
	movl	-20(%rbp), %eax
	addl	%edx, %eax
	cltq
	.loc 1 750 25
	leaq	0(,%rax,8), %rdx
	movq	-40(%rbp), %rax
	addq	%rdx, %rax
	movsd	(%rax), %xmm1
	.loc 1 750 46
	movl	-20(%rbp), %eax
	imull	-60(%rbp), %eax
	movl	%eax, %edx
	.loc 1 750 53
	movl	-8(%rbp), %eax
	addl	%edx, %eax
	cltq
	.loc 1 750 43
	leaq	0(,%rax,8), %rdx
	movq	-48(%rbp), %rax
	addq	%rdx, %rax
	movsd	(%rax), %xmm0
	.loc 1 750 40
	mulsd	%xmm1, %xmm0
	.loc 1 750 21
	movsd	-16(%rbp), %xmm1
	addsd	%xmm1, %xmm0
	movsd	%xmm0, -16(%rbp)
	.loc 1 749 39 discriminator 3
	addl	$1, -20(%rbp)
.L105:
	.loc 1 749 31 discriminator 1
	movl	-20(%rbp), %eax
	cmpl	-60(%rbp), %eax
	jl	.L106
.LBE8:
	.loc 1 752 17
	movl	-4(%rbp), %eax
	imull	-60(%rbp), %eax
	movl	%eax, %edx
	.loc 1 752 24
	movl	-8(%rbp), %eax
	addl	%edx, %eax
	cltq
	.loc 1 752 14
	leaq	0(,%rax,8), %rdx
	movq	-56(%rbp), %rax
	addq	%rdx, %rax
	.loc 1 752 29
	movsd	-16(%rbp), %xmm0
	movsd	%xmm0, (%rax)
.LBE7:
	.loc 1 747 35 discriminator 2
	addl	$1, -8(%rbp)
.L104:
	.loc 1 747 27 discriminator 1
	movl	-8(%rbp), %eax
	cmpl	-60(%rbp), %eax
	jl	.L107
.LBE6:
	.loc 1 746 31 discriminator 2
	addl	$1, -4(%rbp)
.L103:
	.loc 1 746 23 discriminator 1
	movl	-4(%rbp), %eax
	cmpl	-60(%rbp), %eax
	jl	.L108
.LBE5:
	.loc 1 755 1
	nop
	nop
	popq	%rbp
	.cfi_def_cfa 7, 8
	ret
	.cfi_endproc
.LFE4876:
	.size	naive_matrix_multiply, .-naive_matrix_multiply
	.section	.rodata
	.align 8
.LC4:
	.string	"Comparing element at index %d: %.2f vs %.2f\n"
.LC5:
	.string	"MISMATCHES  / TOTAL : %d/%d\n"
.LC6:
	.string	"MATCHES     / TOTAL : %d/%d\n"
	.text
	.globl	compare_matrices
	.type	compare_matrices, @function
compare_matrices:
.LFB4877:
	.loc 1 757 70
	.cfi_startproc
	pushq	%rbp
	.cfi_def_cfa_offset 16
	.cfi_offset 6, -16
	movq	%rsp, %rbp
	.cfi_def_cfa_register 6
	subq	$48, %rsp
	movq	%rdi, -24(%rbp)
	movq	%rsi, -32(%rbp)
	movl	%edx, -36(%rbp)
	movl	%ecx, -40(%rbp)
	.loc 1 758 9
	movl	$0, -4(%rbp)
	.loc 1 759 9
	movl	$0, -8(%rbp)
	.loc 1 761 12
	movl	$0, -12(%rbp)
	.loc 1 761 5
	jmp	.L110
.L114:
	.loc 1 762 81
	movl	-12(%rbp), %eax
	cltq
	leaq	0(,%rax,8), %rdx
	movq	-32(%rbp), %rax
	addq	%rdx, %rax
	.loc 1 762 9
	movsd	(%rax), %xmm0
	.loc 1 762 72
	movl	-12(%rbp), %eax
	cltq
	leaq	0(,%rax,8), %rdx
	movq	-24(%rbp), %rax
	addq	%rdx, %rax
	.loc 1 762 9
	movq	(%rax), %rdx
	movl	-12(%rbp), %eax
	movapd	%xmm0, %xmm1
	movq	%rdx, %xmm0
	movl	%eax, %esi
	leaq	.LC4(%rip), %rax
	movq	%rax, %rdi
	movl	$2, %eax
	call	printf@PLT
	.loc 1 763 17
	movl	-12(%rbp), %eax
	cltq
	leaq	0(,%rax,8), %rdx
	movq	-24(%rbp), %rax
	addq	%rdx, %rax
	movsd	(%rax), %xmm0
	.loc 1 763 28
	movl	-12(%rbp), %eax
	cltq
	leaq	0(,%rax,8), %rdx
	movq	-32(%rbp), %rax
	addq	%rdx, %rax
	movsd	(%rax), %xmm1
	.loc 1 763 12
	ucomisd	%xmm1, %xmm0
	jp	.L116
	ucomisd	%xmm1, %xmm0
	je	.L111
.L116:
	.loc 1 765 18
	addl	$1, -4(%rbp)
	jmp	.L113
.L111:
	.loc 1 768 20
	addl	$1, -8(%rbp)
.L113:
	.loc 1 761 34 discriminator 2
	addl	$1, -12(%rbp)
.L110:
	.loc 1 761 26 discriminator 1
	movl	-36(%rbp), %eax
	imull	-40(%rbp), %eax
	.loc 1 761 19 discriminator 1
	cmpl	%eax, -12(%rbp)
	jl	.L114
	.loc 1 771 5
	movl	-12(%rbp), %edx
	movl	-4(%rbp), %eax
	movl	%eax, %esi
	leaq	.LC5(%rip), %rax
	movq	%rax, %rdi
	movl	$0, %eax
	call	printf@PLT
	.loc 1 772 5
	movl	-12(%rbp), %edx
	movl	-8(%rbp), %eax
	movl	%eax, %esi
	leaq	.LC6(%rip), %rax
	movq	%rax, %rdi
	movl	$0, %eax
	call	printf@PLT
	.loc 1 773 12
	movl	$1, %eax
	.loc 1 774 1
	leave
	.cfi_def_cfa 7, 8
	ret
	.cfi_endproc
.LFE4877:
	.size	compare_matrices, .-compare_matrices
	.section	.rodata
.LC7:
	.string	"generating values for mtx"
	.align 8
.LC9:
	.string	"Naive implementation took %.6f seconds\n"
	.align 8
.LC10:
	.string	"Optimized implementation took %.6f seconds\n"
.LC11:
	.string	"dgemm_nn.c"
	.align 8
.LC12:
	.string	"compare_matrices(C_naive, C_optimized, N, N)"
	.text
	.globl	main
	.type	main, @function
main:
.LFB4878:
	.loc 1 776 12
	.cfi_startproc
	pushq	%rbp
	.cfi_def_cfa_offset 16
	.cfi_offset 6, -16
	movq	%rsp, %rbp
	.cfi_def_cfa_register 6
	subq	$80, %rsp
	.loc 1 777 27
	movl	$131072, %edi
	call	malloc@PLT
	movq	%rax, -8(%rbp)
	.loc 1 778 27
	movl	$131072, %edi
	call	malloc@PLT
	movq	%rax, -16(%rbp)
	.loc 1 779 33
	movl	$8, %esi
	movl	$16384, %edi
	call	calloc@PLT
	movq	%rax, -24(%rbp)
	.loc 1 780 37
	movl	$8, %esi
	movl	$16384, %edi
	call	calloc@PLT
	movq	%rax, -32(%rbp)
	.loc 1 782 11
	movl	$0, %edi
	call	time@PLT
	.loc 1 782 5 discriminator 1
	movl	%eax, %edi
	call	srand@PLT
	.loc 1 784 5
	leaq	.LC7(%rip), %rax
	movq	%rax, %rdi
	call	puts@PLT
	.loc 1 785 5
	movq	-8(%rbp), %rax
	movl	$128, %edx
	movl	$128, %esi
	movq	%rax, %rdi
	call	fill_matrix
	.loc 1 786 5
	movq	-16(%rbp), %rax
	movl	$128, %edx
	movl	$128, %esi
	movq	%rax, %rdi
	call	fill_matrix
	.loc 1 789 27
	call	clock@PLT
	movq	%rax, -40(%rbp)
	.loc 1 790 5
	movq	-24(%rbp), %rdx
	movq	-16(%rbp), %rsi
	movq	-8(%rbp), %rax
	movl	$128, %ecx
	movq	%rax, %rdi
	call	naive_matrix_multiply
	.loc 1 791 25
	call	clock@PLT
	movq	%rax, -48(%rbp)
	.loc 1 792 44
	movq	-48(%rbp), %rax
	subq	-40(%rbp), %rax
	.loc 1 792 25
	pxor	%xmm0, %xmm0
	cvtsi2sdq	%rax, %xmm0
	.loc 1 792 12
	movsd	.LC8(%rip), %xmm1
	divsd	%xmm1, %xmm0
	movsd	%xmm0, -56(%rbp)
	.loc 1 795 31
	call	clock@PLT
	movq	%rax, -64(%rbp)
	.loc 1 796 5
	movq	-8(%rbp), %rdx
	movq	.LC1(%rip), %rax
	pushq	$1
	pushq	$128
	pushq	-32(%rbp)
	pushq	$1
	pushq	$128
	pushq	-16(%rbp)
	pxor	%xmm1, %xmm1
	movl	$1, %r9d
	movl	$128, %r8d
	movq	%rdx, %rcx
	movq	%rax, %xmm0
	movl	$128, %edx
	movl	$128, %esi
	movl	$128, %edi
	call	dgemm_nn
	addq	$48, %rsp
	.loc 1 797 29
	call	clock@PLT
	movq	%rax, -72(%rbp)
	.loc 1 798 52
	movq	-72(%rbp), %rax
	subq	-64(%rbp), %rax
	.loc 1 798 29
	pxor	%xmm0, %xmm0
	cvtsi2sdq	%rax, %xmm0
	.loc 1 798 12
	movsd	.LC8(%rip), %xmm1
	divsd	%xmm1, %xmm0
	movsd	%xmm0, -80(%rbp)
	.loc 1 800 5
	movq	-56(%rbp), %rax
	movq	%rax, %xmm0
	leaq	.LC9(%rip), %rax
	movq	%rax, %rdi
	movl	$1, %eax
	call	printf@PLT
	.loc 1 801 5
	movq	-80(%rbp), %rax
	movq	%rax, %xmm0
	leaq	.LC10(%rip), %rax
	movq	%rax, %rdi
	movl	$1, %eax
	call	printf@PLT
	.loc 1 811 5
	movq	-32(%rbp), %rsi
	movq	-24(%rbp), %rax
	movl	$128, %ecx
	movl	$128, %edx
	movq	%rax, %rdi
	call	compare_matrices
	.loc 1 811 5 is_stmt 0 discriminator 1
	testl	%eax, %eax
	jne	.L118
	leaq	__PRETTY_FUNCTION__.0(%rip), %rax
	movq	%rax, %rcx
	movl	$811, %edx
	leaq	.LC11(%rip), %rax
	movq	%rax, %rsi
	leaq	.LC12(%rip), %rax
	movq	%rax, %rdi
	call	__assert_fail@PLT
.L118:
	.loc 1 814 5 is_stmt 1
	movq	-8(%rbp), %rax
	movq	%rax, %rdi
	call	free@PLT
	.loc 1 815 5
	movq	-16(%rbp), %rax
	movq	%rax, %rdi
	call	free@PLT
	.loc 1 816 5
	movq	-24(%rbp), %rax
	movq	%rax, %rdi
	call	free@PLT
	.loc 1 817 5
	movq	-32(%rbp), %rax
	movq	%rax, %rdi
	call	free@PLT
	.loc 1 819 12
	movl	$0, %eax
	.loc 1 820 1
	leave
	.cfi_def_cfa 7, 8
	ret
	.cfi_endproc
.LFE4878:
	.size	main, .-main
	.section	.rodata
	.type	__PRETTY_FUNCTION__.0, @object
	.size	__PRETTY_FUNCTION__.0, 5
__PRETTY_FUNCTION__.0:
	.string	"main"
	.align 8
.LC1:
	.long	0
	.long	1072693248
	.align 8
.LC2:
	.long	-4194304
	.long	1105199103
	.align 8
.LC8:
	.long	0
	.long	1093567616
	.text
.Letext0:
	.file 2 "/usr/lib/gcc/x86_64-linux-gnu/13/include/stddef.h"
	.file 3 "/usr/include/x86_64-linux-gnu/bits/types.h"
	.file 4 "/usr/include/x86_64-linux-gnu/bits/types/clock_t.h"
	.file 5 "/usr/include/x86_64-linux-gnu/bits/types/time_t.h"
	.file 6 "/usr/include/stdlib.h"
	.file 7 "/usr/include/assert.h"
	.file 8 "/usr/include/time.h"
	.file 9 "/usr/include/stdio.h"
	.section	.note.GNU-stack,"",@progbits
